BL51 BANKED LINKER/LOCATER V6.22.2.0                                                    04/07/2022  23:24:27  PAGE 1


BL51 BANKED LINKER/LOCATER V6.22.2.0, INVOKED BY:
D:\KEIL5\C51\BIN\BL51.EXE .\Objects\STARTUP.obj, .\Objects\main.obj, .\Objects\LCD12864.obj, .\Objects\i2c.obj, .\Object
>> s\delay.obj, .\Objects\FDC1004.obj TO .\Objects\LCD_Test PRINT (.\Listings\LCD_Test.m51) RAMSIZE (256) DISABLEWARNING
>>  (16)


MEMORY MODEL: SMALL WITH FLOATING POINT ARITHMETIC


INPUT MODULES INCLUDED:
  .\Objects\STARTUP.obj (?C_STARTUP)
  .\Objects\main.obj (MAIN)
  .\Objects\LCD12864.obj (LCD12864)
  .\Objects\i2c.obj (I2C)
  .\Objects\delay.obj (DELAY)
  .\Objects\FDC1004.obj (FDC1004)
  D:\KEIL5\C51\LIB\C51FPS.LIB (?C?FPADD)
  D:\KEIL5\C51\LIB\C51FPS.LIB (?C?FPMUL)
  D:\KEIL5\C51\LIB\C51FPS.LIB (?C?FPDIV)
  D:\KEIL5\C51\LIB\C51FPS.LIB (?C?FPCMP)
  D:\KEIL5\C51\LIB\C51FPS.LIB (?C?FPNEG)
  D:\KEIL5\C51\LIB\C51FPS.LIB (?C?FCAST)
  D:\KEIL5\C51\LIB\C51FPS.LIB (?C?CASTF)
  D:\KEIL5\C51\LIB\C51FPS.LIB (?C?FPGETOPN)
  D:\KEIL5\C51\LIB\C51S.LIB (?C_INIT)
  D:\KEIL5\C51\LIB\C51S.LIB (?C?CLDOPTR)
  D:\KEIL5\C51\LIB\C51S.LIB (?C?LMUL)
  D:\KEIL5\C51\LIB\C51S.LIB (?C?ULDIV)
  D:\KEIL5\C51\LIB\C51S.LIB (?C?LNEG)


LINK MAP OF MODULE:  .\Objects\LCD_Test (?C_STARTUP)


            TYPE    BASE      LENGTH    RELOCATION   SEGMENT NAME
            -----------------------------------------------------

            * * * * * * *   D A T A   M E M O R Y   * * * * * * *
            REG     0000H     0008H     ABSOLUTE     "REG BANK 0"
            DATA    0008H     0026H     UNIT         _DATA_GROUP_
            DATA    002EH     0020H     UNIT         ?DT?MAIN
            DATA    004EH     0005H     UNIT         ?DT?_READDATA_AVG?FDC1004
            DATA    0053H     0004H     UNIT         ?DT?_READID_FDC1004?FDC1004
            DATA    0057H     0003H     UNIT         ?DT?_CONFIG_FDC1004?FDC1004
            DATA    005AH     0002H     UNIT         ?DT?_WRITE_BYTE?I2C
            DATA    005CH     0002H     UNIT         ?DT?READ_BYTE?I2C
            DATA    005EH     0002H     UNIT         ?DT?_WRITE_AT_ADDR?I2C
            DATA    0060H     0002H     UNIT         ?DT?_READ_AT_ADDR?I2C
            DATA    0062H     0001H     UNIT         ?DT?RESPONS?I2C
            IDATA   0063H     0001H     UNIT         ?STACK

            * * * * * * *   C O D E   M E M O R Y   * * * * * * *
            CODE    0000H     0003H     ABSOLUTE     
            CODE    0003H     053FH     UNIT         ?C?LIB_CODE
            CODE    0542H     0420H     UNIT         ?CO?LCD12864
            CODE    0962H     016DH     UNIT         ?PR?_CAP_CAC_DIPLAY?FDC1004
            CODE    0ACFH     015AH     UNIT         ?PR?MAIN?MAIN
            CODE    0C29H     0156H     UNIT         ?PR?_CAP_ACCURACY_DIPLAY?FDC1004
BL51 BANKED LINKER/LOCATER V6.22.2.0                                                  04/07/2022  23:24:27  PAGE 2


            CODE    0D7FH     0121H     UNIT         ?PR?_MOISTURE_ACCURACY_DIPLAY?FDC1004
            CODE    0EA0H     0119H     UNIT         ?PR?_MOISTURE_CAC_DIPLAY?FDC1004
            CODE    0FB9H     00BAH     UNIT         ?PR?_DISP_PARAMETERS?LCD12864
            CODE    1073H     00B1H     UNIT         ?PR?_READDATA_FDC1004?FDC1004
            CODE    1124H     0095H     UNIT         ?PR?_SHOW8X8?LCD12864
            CODE    11B9H     008CH     UNIT         ?C_C51STARTUP
            CODE    1245H     008BH     UNIT         ?PR?DIGPLAYSCREEN2?LCD12864
            CODE    12D0H     007AH     UNIT         ?PR?DIGPLAYSCREEN1?LCD12864
            CODE    134AH     006AH     UNIT         ?PR?_WRITE_POINTER?FDC1004
            CODE    13B4H     0062H     UNIT         ?PR?_SHOWCHINA?LCD12864
            CODE    1416H     0056H     UNIT         ?PR?_FDC1004_READ_ADDR?FDC1004
            CODE    146CH     0055H     UNIT         ?PR?_FDC1004_WRITE_ADDR?FDC1004
            CODE    14C1H     004FH     UNIT         ?PR?DIGPLAYSTART?LCD12864
            CODE    1510H     004DH     UNIT         ?PR?_WAITFOR_FDC1004?FDC1004
            CODE    155DH     0045H     UNIT         ?PR?READDATA?FDC1004
            CODE    15A2H     0044H     UNIT         ?PR?_WRITEDATA?FDC1004
            CODE    15E6H     0041H     UNIT         ?PR?BEEP?MAIN
            CODE    1627H     003FH     UNIT         ?PR?_READID_FDC1004?FDC1004
            CODE    1666H     0036H     UNIT         ?PR?_ABSFLOAT?FDC1004
            CODE    169CH     0035H     UNIT         ?PR?READ_BYTE?I2C
            CODE    16D1H     0033H     UNIT         ?C_INITSEG
            CODE    1704H     0033H     UNIT         ?PR?_WRITE_BYTE?I2C
            CODE    1737H     0032H     UNIT         ?PR?_SHOWNUMBER?LCD12864
            CODE    1769H     0032H     UNIT         ?PR?_CONFIG_FDC1004?FDC1004
            CODE    179BH     0030H     UNIT         ?PR?_READDATA_AVG?FDC1004
            CODE    17CBH     002CH     UNIT         ?PR?_CLEARSCREEN?LCD12864
            CODE    17F7H     002BH     UNIT         ?PR?_READ_AT_ADDR?I2C
            CODE    1822H     0029H     UNIT         ?PR?_CONFIG_FDC1004_SINGLE?FDC1004
            CODE    184BH     0023H     UNIT         ?PR?_SELECTSCREEN?LCD12864
            CODE    186EH     0023H     UNIT         ?PR?ACK_MASTER?FDC1004
            CODE    1891H     0023H     UNIT         ?PR?NACK_MASTER?FDC1004
            CODE    18B4H     0022H     UNIT         ?PR?_WRITE_AT_ADDR?I2C
            CODE    18D6H     0020H     UNIT         ?PR?ANSWER?FDC1004
            CODE    18F6H     001FH     UNIT         ?PR?DELAY10MS?DELAY
            CODE    1915H     001FH     UNIT         ?PR?DELAY5MS?DELAY
            CODE    1934H     001FH     UNIT         ?PR?RANSWER?FDC1004
            CODE    1953H     001EH     UNIT         ?PR?_WRITEBYTE?LCD12864
            CODE    1971H     001EH     UNIT         ?PR?_DELAYMS?DELAY
            CODE    198FH     001EH     UNIT         ?PR?FDC1004_START?FDC1004
            CODE    19ADH     001EH     UNIT         ?PR?FDC1004_STOP?FDC1004
            CODE    19CBH     001EH     UNIT         ?PR?SACK_MASTER?FDC1004
            CODE    19E9H     001CH     UNIT         ?PR?INITLCD?LCD12864
            CODE    1A05H     001CH     UNIT         ?PR?RESPONS?I2C
            CODE    1A21H     001CH     UNIT         ?PR?_TRIGGERING_FDC1004?FDC1004
            CODE    1A3DH     001BH     UNIT         ?PR?DIGPLAYNOTOK?LCD12864
            CODE    1A58H     001AH     UNIT         ?PR?_DELAY?DELAY
            CODE    1A72H     0017H     UNIT         ?PR?NANSWER?FDC1004
            CODE    1A89H     0015H     UNIT         ?PR?SNACK_MASTER?FDC1004
            CODE    1A9EH     0012H     UNIT         ?PR?_LCD_CMD_WR?LCD12864
            CODE    1AB0H     0012H     UNIT         ?PR?DIGPLAYOK?LCD12864
            CODE    1AC2H     0010H     UNIT         ?PR?_SETLINE?LCD12864
            CODE    1AD2H     0010H     UNIT         ?PR?_SETCOLUMN?LCD12864
            CODE    1AE2H     000FH     UNIT         ?PR?START?I2C
            CODE    1AF1H     000FH     UNIT         ?PR?STOP?I2C
            CODE    1B00H     000EH     UNIT         ?PR?_SENDCOMMANDTOLCD?LCD12864
            CODE    1B0EH     000CH     UNIT         ?PR?NOP?LCD12864
            CODE    1B1AH     000BH     UNIT         ?PR?_DELAYUS?DELAY
BL51 BANKED LINKER/LOCATER V6.22.2.0                                                  04/07/2022  23:24:27  PAGE 3


            CODE    1B25H     000AH     UNIT         ?PR?CLEARSCREENALL?LCD12864
            CODE    1B2FH     0008H     UNIT         ?PR?CHECKSTATE?LCD12864
            CODE    1B37H     0006H     UNIT         ?PR?_SETSTARTLINE?LCD12864
            CODE    1B3DH     0006H     UNIT         ?PR?_SETONOFF?LCD12864
            CODE    1B43H     0001H     UNIT         ?PR?DELAY_US?DELAY



OVERLAY MAP OF MODULE:   .\Objects\LCD_Test (?C_STARTUP)


SEGMENT                                         DATA_GROUP 
  +--> CALLED SEGMENT                         START    LENGTH
-------------------------------------------------------------
?C_C51STARTUP                                 -----    -----
  +--> ?PR?MAIN?MAIN
  +--> ?C_INITSEG

?PR?MAIN?MAIN                                 -----    -----
  +--> ?PR?INITLCD?LCD12864
  +--> ?PR?DIGPLAYSTART?LCD12864
  +--> ?PR?_CONFIG_FDC1004_SINGLE?FDC1004
  +--> ?PR?_TRIGGERING_FDC1004?FDC1004
  +--> ?PR?_WAITFOR_FDC1004?FDC1004
  +--> ?PR?_READDATA_FDC1004?FDC1004
  +--> ?PR?CLEARSCREENALL?LCD12864
  +--> ?PR?DIGPLAYSCREEN2?LCD12864
  +--> ?PR?_CAP_ACCURACY_DIPLAY?FDC1004
  +--> ?PR?_MOISTURE_ACCURACY_DIPLAY?FDC1004
  +--> ?PR?DIGPLAYOK?LCD12864
  +--> ?PR?DIGPLAYNOTOK?LCD12864
  +--> ?PR?BEEP?MAIN
  +--> ?PR?DIGPLAYSCREEN1?LCD12864
  +--> ?PR?_CAP_CAC_DIPLAY?FDC1004
  +--> ?PR?_MOISTURE_CAC_DIPLAY?FDC1004

?PR?INITLCD?LCD12864                          -----    -----
  +--> ?PR?_SETONOFF?LCD12864
  +--> ?PR?_CLEARSCREEN?LCD12864
  +--> ?PR?_SETSTARTLINE?LCD12864

?PR?_SETONOFF?LCD12864                        -----    -----
  +--> ?PR?_SENDCOMMANDTOLCD?LCD12864

?PR?_SENDCOMMANDTOLCD?LCD12864                -----    -----
  +--> ?PR?CHECKSTATE?LCD12864

?PR?CHECKSTATE?LCD12864                       002DH    0001H

?PR?_CLEARSCREEN?LCD12864                     -----    -----
  +--> ?PR?_SELECTSCREEN?LCD12864
  +--> ?PR?_SETLINE?LCD12864
  +--> ?PR?_WRITEBYTE?LCD12864

?PR?_SELECTSCREEN?LCD12864                    -----    -----
  +--> ?PR?NOP?LCD12864

BL51 BANKED LINKER/LOCATER V6.22.2.0                                                  04/07/2022  23:24:27  PAGE 4


?PR?_SETLINE?LCD12864                         -----    -----
  +--> ?PR?_SELECTSCREEN?LCD12864
  +--> ?PR?_SENDCOMMANDTOLCD?LCD12864

?PR?_WRITEBYTE?LCD12864                       -----    -----
  +--> ?PR?CHECKSTATE?LCD12864

?PR?_SETSTARTLINE?LCD12864                    -----    -----
  +--> ?PR?_SENDCOMMANDTOLCD?LCD12864

?PR?DIGPLAYSTART?LCD12864                     0008H    0001H
  +--> ?PR?_SHOWCHINA?LCD12864
  +--> ?PR?_SHOWNUMBER?LCD12864
  +--> ?PR?DELAY5MS?DELAY

?PR?_SHOWCHINA?LCD12864                       0009H    0005H
  +--> ?CO?LCD12864
  +--> ?PR?_SHOW8X8?LCD12864

?PR?_SHOW8X8?LCD12864                         0027H    0006H
  +--> ?PR?_SETLINE?LCD12864
  +--> ?PR?_SETCOLUMN?LCD12864
  +--> ?PR?_WRITEBYTE?LCD12864
  +--> ?PR?_SELECTSCREEN?LCD12864

?PR?_SETCOLUMN?LCD12864                       -----    -----
  +--> ?PR?_SENDCOMMANDTOLCD?LCD12864

?PR?_SHOWNUMBER?LCD12864                      0022H    0005H
  +--> ?CO?LCD12864
  +--> ?PR?_SHOW8X8?LCD12864

?PR?_CONFIG_FDC1004_SINGLE?FDC1004            0008H    0002H
  +--> ?PR?FDC1004_START?FDC1004
  +--> ?PR?_FDC1004_WRITE_ADDR?FDC1004
  +--> ?PR?_WRITEDATA?FDC1004
  +--> ?PR?FDC1004_STOP?FDC1004
  +--> ?PR?DELAY5MS?DELAY

?PR?FDC1004_START?FDC1004                     -----    -----
  +--> ?PR?_DELAYUS?DELAY

?PR?_FDC1004_WRITE_ADDR?FDC1004               0012H    0002H
  +--> ?PR?_DELAYUS?DELAY
  +--> ?PR?RANSWER?FDC1004
  +--> ?PR?FDC1004_STOP?FDC1004

?PR?RANSWER?FDC1004                           -----    -----
  +--> ?PR?_DELAYUS?DELAY

?PR?FDC1004_STOP?FDC1004                      -----    -----
  +--> ?PR?_DELAYUS?DELAY

?PR?_WRITEDATA?FDC1004                        000AH    0002H
  +--> ?PR?_DELAYUS?DELAY
  +--> ?PR?RANSWER?FDC1004
  +--> ?PR?FDC1004_STOP?FDC1004
BL51 BANKED LINKER/LOCATER V6.22.2.0                                                  04/07/2022  23:24:27  PAGE 5



?PR?_TRIGGERING_FDC1004?FDC1004               0008H    0001H
  +--> ?PR?FDC1004_START?FDC1004
  +--> ?PR?_FDC1004_WRITE_ADDR?FDC1004
  +--> ?PR?_WRITEDATA?FDC1004
  +--> ?PR?FDC1004_STOP?FDC1004

?PR?_WAITFOR_FDC1004?FDC1004                  0008H    0004H
  +--> ?PR?FDC1004_START?FDC1004
  +--> ?PR?_FDC1004_WRITE_ADDR?FDC1004
  +--> ?PR?_WRITE_POINTER?FDC1004
  +--> ?PR?_FDC1004_READ_ADDR?FDC1004
  +--> ?PR?READDATA?FDC1004
  +--> ?PR?SACK_MASTER?FDC1004
  +--> ?PR?SNACK_MASTER?FDC1004
  +--> ?PR?FDC1004_STOP?FDC1004
  +--> ?PR?_DELAYMS?DELAY

?PR?_WRITE_POINTER?FDC1004                    0012H    0002H
  +--> ?PR?_DELAYUS?DELAY

?PR?_FDC1004_READ_ADDR?FDC1004                0012H    0002H
  +--> ?PR?_DELAYUS?DELAY
  +--> ?PR?RANSWER?FDC1004
  +--> ?PR?FDC1004_STOP?FDC1004

?PR?READDATA?FDC1004                          0012H    0002H
  +--> ?PR?_DELAYUS?DELAY

?PR?SACK_MASTER?FDC1004                       -----    -----
  +--> ?PR?_DELAYUS?DELAY

?PR?SNACK_MASTER?FDC1004                      -----    -----
  +--> ?PR?_DELAYUS?DELAY

?PR?_READDATA_FDC1004?FDC1004                 0008H    000AH
  +--> ?PR?FDC1004_START?FDC1004
  +--> ?PR?_FDC1004_WRITE_ADDR?FDC1004
  +--> ?PR?_WRITE_POINTER?FDC1004
  +--> ?PR?_FDC1004_READ_ADDR?FDC1004
  +--> ?PR?READDATA?FDC1004
  +--> ?PR?SACK_MASTER?FDC1004
  +--> ?PR?SNACK_MASTER?FDC1004
  +--> ?PR?FDC1004_STOP?FDC1004
  +--> ?PR?_DELAYUS?DELAY

?PR?CLEARSCREENALL?LCD12864                   -----    -----
  +--> ?PR?_CLEARSCREEN?LCD12864

?PR?DIGPLAYSCREEN2?LCD12864                   -----    -----
  +--> ?PR?_SHOWCHINA?LCD12864

?PR?_CAP_ACCURACY_DIPLAY?FDC1004              0008H    0016H
  +--> ?PR?_ABSFLOAT?FDC1004
  +--> ?PR?_DISP_PARAMETERS?LCD12864

?PR?_ABSFLOAT?FDC1004                         001EH    0004H
BL51 BANKED LINKER/LOCATER V6.22.2.0                                                  04/07/2022  23:24:27  PAGE 6



?PR?_DISP_PARAMETERS?LCD12864                 001EH    0004H
  +--> ?PR?_SHOWNUMBER?LCD12864

?PR?_MOISTURE_ACCURACY_DIPLAY?FDC1004         0008H    0012H
  +--> ?PR?_ABSFLOAT?FDC1004
  +--> ?PR?_DISP_PARAMETERS?LCD12864

?PR?DIGPLAYOK?LCD12864                        -----    -----
  +--> ?PR?_SHOWCHINA?LCD12864

?PR?DIGPLAYNOTOK?LCD12864                     -----    -----
  +--> ?PR?_SHOWCHINA?LCD12864

?PR?DIGPLAYSCREEN1?LCD12864                   -----    -----
  +--> ?PR?_SHOWCHINA?LCD12864

?PR?_CAP_CAC_DIPLAY?FDC1004                   0008H    000BH
  +--> ?PR?_DISP_PARAMETERS?LCD12864

?PR?_MOISTURE_CAC_DIPLAY?FDC1004              0008H    000FH
  +--> ?PR?_DISP_PARAMETERS?LCD12864



SYMBOL TABLE OF MODULE:  .\Objects\LCD_Test (?C_STARTUP)

  VALUE           TYPE          NAME
  ----------------------------------

  -------         MODULE        ?C_STARTUP
  C:11B9H         SEGMENT       ?C_C51STARTUP
  I:0063H         SEGMENT       ?STACK
  C:0000H         PUBLIC        ?C_STARTUP
  D:00E0H         SYMBOL        ACC
  D:00F0H         SYMBOL        B
  D:0083H         SYMBOL        DPH
  D:0082H         SYMBOL        DPL
  N:0000H         SYMBOL        IBPSTACK
  N:0100H         SYMBOL        IBPSTACKTOP
  N:0080H         SYMBOL        IDATALEN
  C:11BCH         SYMBOL        IDATALOOP
  N:0000H         SYMBOL        PBPSTACK
  N:0100H         SYMBOL        PBPSTACKTOP
  N:0000H         SYMBOL        PDATALEN
  N:0000H         SYMBOL        PDATASTART
  N:0000H         SYMBOL        PPAGE
  N:0000H         SYMBOL        PPAGEENABLE
  D:00A0H         SYMBOL        PPAGE_SFR
  D:0081H         SYMBOL        SP
  C:11B9H         SYMBOL        STARTUP1
  N:0000H         SYMBOL        XBPSTACK
  N:0000H         SYMBOL        XBPSTACKTOP
  N:0000H         SYMBOL        XDATALEN
  N:0000H         SYMBOL        XDATASTART
  C:0000H         LINE#         126
  C:11B9H         LINE#         133
BL51 BANKED LINKER/LOCATER V6.22.2.0                                                  04/07/2022  23:24:27  PAGE 7


  C:11BBH         LINE#         134
  C:11BCH         LINE#         135
  C:11BDH         LINE#         136
  C:11BFH         LINE#         185
  C:11C2H         LINE#         196
  -------         ENDMOD        ?C_STARTUP

  -------         MODULE        MAIN
  C:0000H         SYMBOL        _ICE_DUMMY_
  D:0090H         PUBLIC        P1
  D:00A0H         PUBLIC        P2
  D:00B0H         PUBLIC        P3
  D:00A8H         PUBLIC        IE
  D:002EH         PUBLIC        Cap
  D:00B8H         PUBLIC        IP
  C:15E6H         PUBLIC        beep
  B:00B0H.7       PUBLIC        buzzer
  C:0ACFH         PUBLIC        main
  D:0098H         PUBLIC        SCON
  D:0088H         PUBLIC        TCON
  D:0030H         PUBLIC        Screen_Flag
  D:0032H         PUBLIC        Cap1
  D:0036H         PUBLIC        Cap2
  D:003AH         PUBLIC        Cap3
  D:003EH         PUBLIC        Cap4
  D:0042H         PUBLIC        Set_Moisture_Result
  D:0046H         PUBLIC        Moisture_Accuracy_Result
  D:00C8H         PUBLIC        T2CON
  D:00D0H         PUBLIC        PSW
  B:00B0H.3       PUBLIC        K1
  D:004AH         PUBLIC        Set_Moisture_Accuracy
  -------         PROC          BEEP
  -------         DO            
  D:0007H         SYMBOL        a
  D:0006H         SYMBOL        b
  -------         ENDDO         
  C:15E6H         LINE#         21
  C:15E6H         LINE#         22
  C:15E6H         LINE#         24
  C:15F2H         LINE#         25
  C:1604H         LINE#         26
  C:1606H         LINE#         27
  C:1612H         LINE#         28
  C:1624H         LINE#         29
  C:1626H         LINE#         30
  -------         ENDPROC       BEEP
  -------         PROC          MAIN
  C:0ACFH         LINE#         32
  C:0ACFH         LINE#         33
  C:0ACFH         LINE#         34
  C:0AD2H         LINE#         35
  C:0AD5H         LINE#         36
  C:0ADBH         LINE#         37
  C:0AE4H         LINE#         38
  C:0AEDH         LINE#         39
  C:0AF6H         LINE#         40
  C:0AFFH         LINE#         41
BL51 BANKED LINKER/LOCATER V6.22.2.0                                                  04/07/2022  23:24:27  PAGE 8


  C:0B04H         LINE#         42
  C:0B09H         LINE#         43
  C:0B16H         LINE#         44
  C:0B23H         LINE#         45
  C:0B30H         LINE#         46
  C:0B3DH         LINE#         47
  C:0B3DH         LINE#         48
  C:0B3DH         LINE#         49
  C:0B42H         LINE#         50
  C:0B4FH         LINE#         51
  C:0B5CH         LINE#         52
  C:0B69H         LINE#         53
  C:0B76H         LINE#         57
  C:0B79H         LINE#         58
  C:0B79H         LINE#         59
  C:0B81H         LINE#         60
  C:0B81H         LINE#         61
  C:0B84H         LINE#         62
  C:0B87H         LINE#         63
  C:0B87H         LINE#         64
  C:0B8DH         LINE#         66
  C:0BACH         LINE#         67
  C:0BD3H         LINE#         68
  C:0BE0H         LINE#         69
  C:0BE0H         LINE#         70
  C:0BE3H         LINE#         71
  C:0BE6H         LINE#         73
  C:0BE6H         LINE#         74
  C:0BE9H         LINE#         75
  C:0BECH         LINE#         76
  C:0BECH         LINE#         77
  C:0BEFH         LINE#         79
  C:0BEFH         LINE#         80
  C:0BF5H         LINE#         81
  C:0BF5H         LINE#         82
  C:0BF8H         LINE#         83
  C:0BFBH         LINE#         84
  C:0BFBH         LINE#         85
  C:0C00H         LINE#         86
  C:0C13H         LINE#         87
  C:0C26H         LINE#         88
  C:0C26H         LINE#         89
  -------         ENDPROC       MAIN
  -------         ENDMOD        MAIN

  -------         MODULE        LCD12864
  C:0000H         SYMBOL        _ICE_DUMMY_
  D:0090H         PUBLIC        P1
  D:00A0H         PUBLIC        P2
  D:00B0H         PUBLIC        P3
  B:00B0H.0       PUBLIC        cs1
  C:1B3DH         PUBLIC        _SetOnOff
  B:00B0H.1       PUBLIC        cs2
  C:1AB0H         PUBLIC        digplayOK
  C:1B25H         PUBLIC        ClearScreenall
  C:13B8H         PUBLIC        _ShowChina
  C:1124H         PUBLIC        _Show8x8
BL51 BANKED LINKER/LOCATER V6.22.2.0                                                  04/07/2022  23:24:27  PAGE 9


  C:0FB9H         PUBLIC        _DisP_parameters
  D:00A8H         PUBLIC        IE
  C:1737H         PUBLIC        _ShowNumber
  C:1A9EH         PUBLIC        _lcd_cmd_wr
  D:00B8H         PUBLIC        IP
  C:1AD9H         PUBLIC        _SetColumn
  C:14C1H         PUBLIC        digplaystart
  C:12D0H         PUBLIC        digplayscreen1
  C:1963H         PUBLIC        _WriteByte
  C:1245H         PUBLIC        digplayscreen2
  D:0098H         PUBLIC        SCON
  D:0088H         PUBLIC        TCON
  C:1AC9H         PUBLIC        _SetLine
  C:0682H         PUBLIC        word
  C:184BH         PUBLIC        _SelectScreen
  C:1B37H         PUBLIC        _SetStartLine
  B:00A0H.2       PUBLIC        di
  C:17CBH         PUBLIC        _ClearScreen
  C:1B0EH         PUBLIC        nop
  C:0542H         PUBLIC        Numcode
  B:00A0H.0       PUBLIC        en
  C:1B2FH         PUBLIC        CheckState
  D:00C8H         PUBLIC        T2CON
  C:1B00H         PUBLIC        _SendCommandToLCD
  B:00A0H.1       PUBLIC        rw
  C:19E9H         PUBLIC        InitLCD
  D:00D0H         PUBLIC        PSW
  C:1A3DH         PUBLIC        digplayNOTOK
  -------         PROC          NOP
  C:1B0EH         LINE#         6
  C:1B0EH         LINE#         7
  C:1B0EH         LINE#         8
  C:1B0FH         LINE#         9
  C:1B10H         LINE#         10
  C:1B11H         LINE#         11
  C:1B12H         LINE#         12
  C:1B13H         LINE#         13
  C:1B14H         LINE#         14
  C:1B15H         LINE#         15
  C:1B16H         LINE#         16
  C:1B17H         LINE#         17
  C:1B18H         LINE#         18
  C:1B19H         LINE#         19
  -------         ENDPROC       NOP
  -------         PROC          CHECKSTATE
  -------         DO            
  D:002DH         SYMBOL        dat
  -------         ENDDO         
  C:1B2FH         LINE#         22
  C:1B2FH         LINE#         23
  C:1B2FH         LINE#         25
  C:1B32H         LINE#         26
  C:1B34H         LINE#         27
  C:1B36H         LINE#         36
  -------         ENDPROC       CHECKSTATE
  -------         PROC          L?0085
  -------         ENDPROC       L?0085
BL51 BANKED LINKER/LOCATER V6.22.2.0                                                  04/07/2022  23:24:27  PAGE 10


  -------         PROC          _WRITEBYTE
  D:0007H         SYMBOL        dat
  C:1963H         LINE#         40
  C:1963H         LINE#         41
  C:1963H         LINE#         42
  C:1966H         LINE#         43
  C:1968H         LINE#         44
  C:196AH         LINE#         45
  C:196CH         LINE#         46
  C:196EH         LINE#         47
  C:1970H         LINE#         48
  -------         ENDPROC       _WRITEBYTE
  -------         PROC          _LCD_CMD_WR
  D:0007H         SYMBOL        command
  C:1A9EH         LINE#         51
  C:1A9EH         LINE#         52
  C:1A9EH         LINE#         53
  C:1AA0H         LINE#         54
  C:1AA2H         LINE#         55
  C:1AA5H         LINE#         56
  C:1AA7H         LINE#         57
  C:1AA9H         LINE#         58
  C:1AABH         LINE#         59
  C:1AADH         LINE#         60
  C:1AAFH         LINE#         61
  -------         ENDPROC       _LCD_CMD_WR
  -------         PROC          _SENDCOMMANDTOLCD
  D:0007H         SYMBOL        command
  C:1B00H         LINE#         65
  C:1B00H         LINE#         66
  C:1B00H         LINE#         67
  C:1B03H         LINE#         68
  C:1B05H         LINE#         69
  C:1B07H         LINE#         70
  C:1B09H         LINE#         71
  C:1B0BH         LINE#         72
  C:1B0DH         LINE#         73
  -------         ENDPROC       _SENDCOMMANDTOLCD
  C:1AC4H         SYMBOL        L?0087
  -------         PROC          L?0086
  -------         ENDPROC       L?0086
  C:1AC4H         SYMBOL        L?0087
  -------         PROC          _SETLINE
  D:0007H         SYMBOL        line
  C:1AC9H         LINE#         76
  C:1AC9H         LINE#         77
  C:1AC9H         LINE#         78
  C:1ACCH         LINE#         79
  C:1ACFH         LINE#         80
  -------         ENDPROC       _SETLINE
  -------         PROC          L?0089
  -------         ENDPROC       L?0089
  -------         PROC          _SETCOLUMN
  D:0007H         SYMBOL        column
  C:1AD9H         LINE#         83
  C:1AD9H         LINE#         84
  C:1AD9H         LINE#         85
BL51 BANKED LINKER/LOCATER V6.22.2.0                                                  04/07/2022  23:24:27  PAGE 11


  C:1ADCH         LINE#         86
  C:1ADFH         LINE#         87
  -------         ENDPROC       _SETCOLUMN
  -------         PROC          _SETSTARTLINE
  D:0007H         SYMBOL        startline
  C:1B37H         LINE#         90
  C:1B37H         LINE#         91
  C:1B37H         LINE#         93
  C:1B3AH         LINE#         94
  -------         ENDPROC       _SETSTARTLINE
  -------         PROC          _SETONOFF
  D:0007H         SYMBOL        onoff
  C:1B3DH         LINE#         97
  C:1B3DH         LINE#         98
  C:1B3DH         LINE#         99
  C:1B40H         LINE#         100
  -------         ENDPROC       _SETONOFF
  -------         PROC          _SELECTSCREEN
  D:0007H         SYMBOL        screen
  C:184BH         LINE#         105
  C:184BH         LINE#         106
  C:184BH         LINE#         107
  C:1856H         LINE#         108
  C:1856H         LINE#         109
  C:1856H         LINE#         110
  C:1858H         LINE#         111
  C:1858H         LINE#         112
  C:1858H         LINE#         113
  C:1858H         LINE#         114
  C:185AH         LINE#         115
  C:185AH         LINE#         116
  C:185CH         LINE#         117
  C:185FH         LINE#         118
  C:1861H         LINE#         119
  C:1861H         LINE#         120
  C:1863H         LINE#         121
  C:1863H         LINE#         122
  C:1865H         LINE#         123
  C:1868H         LINE#         124
  C:186AH         LINE#         125
  C:186DH         LINE#         126
  C:186DH         LINE#         127
  C:186DH         LINE#         128
  C:186DH         LINE#         129
  C:186DH         LINE#         130
  -------         ENDPROC       _SELECTSCREEN
  -------         PROC          _CLEARSCREEN
  D:0007H         SYMBOL        screen
  -------         DO            
  D:0006H         SYMBOL        i
  D:0005H         SYMBOL        j
  -------         ENDDO         
  C:17CBH         LINE#         134
  C:17CBH         LINE#         135
  C:17CBH         LINE#         137
  C:17CEH         LINE#         138
  C:17DAH         LINE#         139
BL51 BANKED LINKER/LOCATER V6.22.2.0                                                  04/07/2022  23:24:27  PAGE 12


  C:17DAH         LINE#         140
  C:17DFH         LINE#         141
  C:17EBH         LINE#         142
  C:17EBH         LINE#         143
  C:17F0H         LINE#         144
  C:17F3H         LINE#         145
  C:17F6H         LINE#         146
  -------         ENDPROC       _CLEARSCREEN
  -------         PROC          _SHOW8X8
  D:0027H         SYMBOL        lin
  D:0028H         SYMBOL        column
  D:0029H         SYMBOL        address
  -------         DO            
  D:002CH         SYMBOL        i
  -------         ENDDO         
  C:1124H         LINE#         151
  C:112EH         LINE#         152
  C:112EH         LINE#         155
  C:1139H         LINE#         156
  C:1139H         LINE#         157
  C:1139H         LINE#         158
  C:113CH         LINE#         159
  C:1141H         LINE#         160
  C:1150H         LINE#         161
  C:1150H         LINE#         162
  C:1162H         LINE#         163
  C:1162H         LINE#         164
  C:1162H         LINE#         165
  C:1164H         LINE#         167
  C:1164H         LINE#         168
  C:1166H         LINE#         169
  C:1169H         LINE#         170
  C:116CH         LINE#         171
  C:116FH         LINE#         172
  C:116FH         LINE#         173
  C:1173H         LINE#         174
  C:1173H         LINE#         176
  C:1173H         LINE#         177
  C:1178H         LINE#         178
  C:117EH         LINE#         179
  C:1183H         LINE#         180
  C:1188H         LINE#         181
  C:1197H         LINE#         182
  C:1197H         LINE#         183
  C:11A9H         LINE#         184
  C:11A9H         LINE#         185
  C:11A9H         LINE#         186
  C:11ABH         LINE#         188
  C:11ABH         LINE#         189
  C:11ABH         LINE#         190
  C:11AEH         LINE#         191
  C:11B1H         LINE#         192
  C:11B4H         LINE#         193
  C:11B4H         LINE#         194
  C:11B8H         LINE#         195
  C:11B8H         LINE#         196
  -------         ENDPROC       _SHOW8X8
BL51 BANKED LINKER/LOCATER V6.22.2.0                                                  04/07/2022  23:24:27  PAGE 13


  -------         PROC          _SHOWNUMBER
  D:0022H         SYMBOL        lin
  D:0023H         SYMBOL        column
  D:0003H         SYMBOL        num
  -------         DO            
  D:0024H         SYMBOL        address
  -------         ENDDO         
  C:1737H         LINE#         199
  C:173BH         LINE#         200
  C:173BH         LINE#         202
  C:1750H         LINE#         203
  C:1755H         LINE#         204
  -------         ENDPROC       _SHOWNUMBER
  -------         PROC          L?0088
  -------         ENDPROC       L?0088
  -------         PROC          _SHOWCHINA
  D:0009H         SYMBOL        lin
  D:000AH         SYMBOL        column
  D:0003H         SYMBOL        num
  -------         DO            
  D:000BH         SYMBOL        address
  -------         ENDDO         
  C:13B8H         LINE#         210
  C:13BCH         LINE#         211
  C:13BCH         LINE#         214
  C:13D1H         LINE#         215
  C:13D6H         LINE#         216
  C:13EBH         LINE#         217
  C:13FFH         LINE#         218
  -------         ENDPROC       _SHOWCHINA
  -------         PROC          INITLCD
  -------         DO            
  D:0007H         SYMBOL        i
  -------         ENDDO         
  C:19E9H         LINE#         221
  C:19E9H         LINE#         222
  C:19E9H         LINE#         223
  C:19EBH         LINE#         224
  C:19F1H         LINE#         225
  C:19F6H         LINE#         226
  C:19FBH         LINE#         227
  C:1A00H         LINE#         228
  -------         ENDPROC       INITLCD
  -------         PROC          CLEARSCREENALL
  C:1B25H         LINE#         231
  C:1B25H         LINE#         232
  C:1B2AH         LINE#         233
  -------         ENDPROC       CLEARSCREENALL
  -------         PROC          DIGPLAYSTART
  -------         DO            
  D:0008H         SYMBOL        i
  -------         ENDDO         
  C:14C1H         LINE#         236
  C:14C1H         LINE#         237
  C:14C4H         LINE#         238
  C:14CCH         LINE#         239
  C:14D5H         LINE#         240
BL51 BANKED LINKER/LOCATER V6.22.2.0                                                  04/07/2022  23:24:27  PAGE 14


  C:14DEH         LINE#         241
  C:14E7H         LINE#         242
  C:14F5H         LINE#         243
  C:1505H         LINE#         244
  C:1508H         LINE#         245
  C:150BH         LINE#         246
  C:150FH         LINE#         247
  -------         ENDPROC       DIGPLAYSTART
  -------         PROC          DIGPLAYSCREEN1
  C:12D0H         LINE#         249
  C:12D0H         LINE#         250
  C:12D9H         LINE#         251
  C:12E2H         LINE#         252
  C:12EBH         LINE#         253
  C:12F4H         LINE#         254
  C:12FDH         LINE#         255
  C:1306H         LINE#         256
  C:130FH         LINE#         257
  C:1318H         LINE#         258
  C:1321H         LINE#         259
  C:132AH         LINE#         260
  C:1333H         LINE#         261
  C:133CH         LINE#         262
  C:1341H         LINE#         263
  -------         ENDPROC       DIGPLAYSCREEN1
  -------         PROC          DIGPLAYSCREEN2
  C:1245H         LINE#         266
  C:1245H         LINE#         267
  C:124DH         LINE#         268
  C:1256H         LINE#         269
  C:125FH         LINE#         270
  C:1268H         LINE#         271
  C:1271H         LINE#         272
  C:127AH         LINE#         273
  C:1283H         LINE#         274
  C:128CH         LINE#         275
  C:1295H         LINE#         276
  C:129EH         LINE#         277
  C:12A7H         LINE#         278
  C:12B0H         LINE#         279
  C:12B9H         LINE#         280
  C:12BEH         LINE#         281
  C:12C7H         LINE#         282
  -------         ENDPROC       DIGPLAYSCREEN2
  -------         PROC          DIGPLAYOK
  C:1AB0H         LINE#         285
  C:1AB0H         LINE#         286
  C:1AB0H         LINE#         287
  C:1AB9H         LINE#         288
  -------         ENDPROC       DIGPLAYOK
  -------         PROC          DIGPLAYNOTOK
  C:1A3DH         LINE#         290
  C:1A3DH         LINE#         291
  C:1A3DH         LINE#         292
  C:1A46H         LINE#         293
  C:1A4FH         LINE#         294
  -------         ENDPROC       DIGPLAYNOTOK
BL51 BANKED LINKER/LOCATER V6.22.2.0                                                  04/07/2022  23:24:27  PAGE 15


  -------         PROC          _DISP_PARAMETERS
  D:001EH         SYMBOL        x
  D:0020H         SYMBOL        y
  D:0002H         SYMBOL        m
  C:0FB9H         LINE#         298
  C:0FC1H         LINE#         299
  C:1001H         LINE#         300
  C:1001H         LINE#         301
  C:1007H         LINE#         302
  C:1009H         LINE#         303
  C:1009H         LINE#         304
  C:100FH         LINE#         305
  C:1011H         LINE#         306
  C:1011H         LINE#         307
  C:1017H         LINE#         308
  C:1019H         LINE#         309
  C:1019H         LINE#         310
  C:101FH         LINE#         311
  C:1021H         LINE#         312
  C:1021H         LINE#         313
  C:1027H         LINE#         314
  C:1029H         LINE#         315
  C:1029H         LINE#         316
  C:102FH         LINE#         317
  C:1031H         LINE#         318
  C:1031H         LINE#         319
  C:1037H         LINE#         320
  C:1039H         LINE#         321
  C:1039H         LINE#         322
  C:103FH         LINE#         323
  C:1041H         LINE#         324
  C:1041H         LINE#         325
  C:1047H         LINE#         326
  C:1049H         LINE#         327
  C:1049H         LINE#         328
  C:104FH         LINE#         329
  C:1051H         LINE#         330
  C:1051H         LINE#         331
  C:1057H         LINE#         332
  C:1059H         LINE#         333
  C:1059H         LINE#         334
  C:105FH         LINE#         335
  C:1061H         LINE#         336
  C:1061H         LINE#         337
  C:1067H         LINE#         338
  C:1069H         LINE#         339
  C:1069H         LINE#         340
  C:1072H         LINE#         341
  C:1072H         LINE#         342
  C:1072H         LINE#         343
  -------         ENDPROC       _DISP_PARAMETERS
  -------         ENDMOD        LCD12864

  -------         MODULE        I2C
  C:0000H         SYMBOL        _ICE_DUMMY_
  D:0090H         PUBLIC        P1
  D:00A0H         PUBLIC        P2
BL51 BANKED LINKER/LOCATER V6.22.2.0                                                  04/07/2022  23:24:27  PAGE 16


  D:00B0H         PUBLIC        P3
  D:00A8H         PUBLIC        IE
  C:1A05H         PUBLIC        respons
  D:00B8H         PUBLIC        IP
  B:00D0H.7       PUBLIC        CY
  C:1AE2H         PUBLIC        start
  D:0098H         PUBLIC        SCON
  C:169CH         PUBLIC        read_byte
  D:0088H         PUBLIC        TCON
  B:00A0H.4       PUBLIC        sda
  B:00A0H.3       PUBLIC        scl
  C:1704H         PUBLIC        _write_byte
  C:1AF1H         PUBLIC        stop
  C:17F7H         PUBLIC        _read_at_addr
  C:18B4H         PUBLIC        _write_at_addr
  D:00C8H         PUBLIC        T2CON
  D:00D0H         PUBLIC        PSW
  -------         PROC          START
  C:1AE2H         LINE#         7
  C:1AE2H         LINE#         8
  C:1AE2H         LINE#         9
  C:1AE4H         LINE#         10
  C:1AE7H         LINE#         11
  C:1AE9H         LINE#         12
  C:1AECH         LINE#         13
  C:1AEEH         LINE#         14
  -------         ENDPROC       START
  -------         PROC          STOP
  C:1AF1H         LINE#         18
  C:1AF1H         LINE#         19
  C:1AF1H         LINE#         20
  C:1AF3H         LINE#         21
  C:1AF6H         LINE#         22
  C:1AF8H         LINE#         23
  C:1AFBH         LINE#         24
  C:1AFDH         LINE#         25
  -------         ENDPROC       STOP
  -------         PROC          RESPONS
  -------         DO            
  D:0062H         SYMBOL        i
  -------         ENDDO         
  C:1A05H         LINE#         29
  C:1A05H         LINE#         30
  C:1A05H         LINE#         32
  C:1A07H         LINE#         33
  C:1A0AH         LINE#         35
  C:1A18H         LINE#         36
  C:1A1CH         LINE#         38
  C:1A1EH         LINE#         39
  -------         ENDPROC       RESPONS
  -------         PROC          _WRITE_BYTE
  D:0007H         SYMBOL        dat
  -------         DO            
  D:005AH         SYMBOL        i
  D:005BH         SYMBOL        temp
  -------         ENDDO         
  C:1704H         LINE#         43
BL51 BANKED LINKER/LOCATER V6.22.2.0                                                  04/07/2022  23:24:27  PAGE 17


  C:1704H         LINE#         44
  C:1704H         LINE#         46
  C:1706H         LINE#         47
  C:1714H         LINE#         48
  C:1714H         LINE#         49
  C:171AH         LINE#         50
  C:171CH         LINE#         51
  C:171FH         LINE#         52
  C:1721H         LINE#         53
  C:1724H         LINE#         54
  C:1726H         LINE#         55
  C:1729H         LINE#         56
  C:172DH         LINE#         58
  C:172FH         LINE#         59
  C:1732H         LINE#         60
  C:1734H         LINE#         61
  -------         ENDPROC       _WRITE_BYTE
  -------         PROC          READ_BYTE
  -------         DO            
  D:005CH         SYMBOL        i
  D:005DH         SYMBOL        k
  -------         ENDDO         
  C:169CH         LINE#         65
  C:169CH         LINE#         66
  C:169CH         LINE#         68
  C:169EH         LINE#         69
  C:16A1H         LINE#         70
  C:16A3H         LINE#         71
  C:16A6H         LINE#         72
  C:16B4H         LINE#         73
  C:16B4H         LINE#         74
  C:16B6H         LINE#         75
  C:16B9H         LINE#         76
  C:16C5H         LINE#         77
  C:16C7H         LINE#         78
  C:16CAH         LINE#         79
  C:16CEH         LINE#         80
  C:16D0H         LINE#         81
  -------         ENDPROC       READ_BYTE
  -------         PROC          _WRITE_AT_ADDR
  D:005EH         SYMBOL        addr
  D:005FH         SYMBOL        dat
  C:18B4H         LINE#         84
  C:18B8H         LINE#         85
  C:18B8H         LINE#         86
  C:18BBH         LINE#         89
  C:18C0H         LINE#         90
  C:18C3H         LINE#         91
  C:18C8H         LINE#         92
  C:18CBH         LINE#         93
  C:18D0H         LINE#         94
  C:18D3H         LINE#         95
  -------         ENDPROC       _WRITE_AT_ADDR
  -------         PROC          _READ_AT_ADDR
  D:0060H         SYMBOL        addr
  -------         DO            
  D:0061H         SYMBOL        dat
BL51 BANKED LINKER/LOCATER V6.22.2.0                                                  04/07/2022  23:24:27  PAGE 18


  -------         ENDDO         
  C:17F7H         LINE#         99
  C:17F9H         LINE#         100
  C:17F9H         LINE#         102
  C:17FCH         LINE#         103
  C:1801H         LINE#         104
  C:1804H         LINE#         105
  C:1809H         LINE#         106
  C:180CH         LINE#         107
  C:180FH         LINE#         108
  C:1814H         LINE#         109
  C:1817H         LINE#         110
  C:181CH         LINE#         111
  C:181FH         LINE#         112
  C:1821H         LINE#         113
  -------         ENDPROC       _READ_AT_ADDR
  -------         ENDMOD        I2C

  -------         MODULE        DELAY
  C:0000H         SYMBOL        _ICE_DUMMY_
  D:0090H         PUBLIC        P1
  D:00B0H         PUBLIC        P3
  D:00A8H         PUBLIC        IE
  C:1A58H         PUBLIC        _delay
  D:00B8H         PUBLIC        IP
  C:1915H         PUBLIC        delay5ms
  D:0098H         PUBLIC        SCON
  D:0088H         PUBLIC        TCON
  C:18F6H         PUBLIC        delay10ms
  C:1B43H         PUBLIC        delay_us
  D:00C8H         PUBLIC        T2CON
  C:1971H         PUBLIC        _delayms
  D:00D0H         PUBLIC        PSW
  C:1B1AH         PUBLIC        _delayus
  -------         PROC          _DELAYMS
  D:0006H         SYMBOL        n
  -------         DO            
  D:0004H         SYMBOL        i
  D:0006H         SYMBOL        j
  -------         ENDDO         
  C:1971H         LINE#         4
  C:1971H         LINE#         5
  C:1971H         LINE#         7
  C:197AH         LINE#         8
  C:198EH         LINE#         10
  -------         ENDPROC       _DELAYMS
  -------         PROC          _DELAYUS
  D:0006H         SYMBOL        n
  C:1B1AH         LINE#         13
  C:1B1AH         LINE#         14
  C:1B1AH         LINE#         15
  C:1B24H         LINE#         16
  -------         ENDPROC       _DELAYUS
  -------         PROC          DELAY10MS
  -------         DO            
  D:0007H         SYMBOL        i
  D:0006H         SYMBOL        j
BL51 BANKED LINKER/LOCATER V6.22.2.0                                                  04/07/2022  23:24:27  PAGE 19


  -------         ENDDO         
  C:18F6H         LINE#         18
  C:18F6H         LINE#         19
  C:18F6H         LINE#         21
  C:1902H         LINE#         22
  C:1914H         LINE#         23
  -------         ENDPROC       DELAY10MS
  -------         PROC          DELAY5MS
  -------         DO            
  D:0006H         SYMBOL        a
  D:0007H         SYMBOL        b
  -------         ENDDO         
  C:1915H         LINE#         24
  C:1915H         LINE#         25
  C:1915H         LINE#         27
  C:1921H         LINE#         28
  C:1933H         LINE#         29
  -------         ENDPROC       DELAY5MS
  -------         PROC          _DELAY
  D:0007H         SYMBOL        t
  -------         DO            
  D:0006H         SYMBOL        i
  D:0005H         SYMBOL        j
  -------         ENDDO         
  C:1A58H         LINE#         32
  C:1A58H         LINE#         33
  C:1A58H         LINE#         35
  C:1A5FH         LINE#         36
  C:1A71H         LINE#         38
  -------         ENDPROC       _DELAY
  -------         PROC          DELAY_US
  C:1B43H         LINE#         41
  C:1B43H         LINE#         42
  C:1B43H         LINE#         44
  -------         ENDPROC       DELAY_US
  -------         ENDMOD        DELAY

  -------         MODULE        FDC1004
  C:0000H         SYMBOL        _ICE_DUMMY_
  C:1627H         PUBLIC        _ReadID_FDC1004
  D:0090H         PUBLIC        P1
  D:00A0H         PUBLIC        P2
  D:00B0H         PUBLIC        P3
  C:198FH         PUBLIC        FDC1004_Start
  C:15A2H         PUBLIC        _WriteData
  C:0C29H         PUBLIC        _Cap_accuracy_Diplay
  C:0EA0H         PUBLIC        _Moisture_Cac_Diplay
  C:1A21H         PUBLIC        _Triggering_FDC1004
  D:00A8H         PUBLIC        IE
  C:1822H         PUBLIC        _Config_FDC1004_Single
  D:00B8H         PUBLIC        IP
  C:19ADH         PUBLIC        FDC1004_Stop
  C:1A89H         PUBLIC        SNack_Master
  C:19CBH         PUBLIC        SAck_Master
  D:0098H         PUBLIC        SCON
  C:1510H         PUBLIC        _WaitFor_FDC1004
  D:0088H         PUBLIC        TCON
BL51 BANKED LINKER/LOCATER V6.22.2.0                                                  04/07/2022  23:24:27  PAGE 20


  B:00A0H.4       PUBLIC        sda
  C:1A72H         PUBLIC        NAnswer
  B:00A0H.3       PUBLIC        scl
  C:0962H         PUBLIC        _Cap_Cac_Diplay
  C:1934H         PUBLIC        RAnswer
  C:1769H         PUBLIC        _Config_FDC1004
  C:1891H         PUBLIC        Nack_Master
  C:1416H         PUBLIC        _FDC1004_Read_Addr
  C:1666H         PUBLIC        _absfloat
  C:134AH         PUBLIC        _Write_Pointer
  C:0D7FH         PUBLIC        _Moisture_accuracy_Diplay
  C:146CH         PUBLIC        _FDC1004_Write_Addr
  C:186EH         PUBLIC        Ack_Master
  D:00C8H         PUBLIC        T2CON
  C:1073H         PUBLIC        _ReadData_FDC1004
  C:18D6H         PUBLIC        Answer
  C:179BH         PUBLIC        _ReadData_Avg
  C:155DH         PUBLIC        ReadData
  D:00D0H         PUBLIC        PSW
  -------         PROC          _ABSFLOAT
  D:001EH         SYMBOL        Data
  C:1666H         LINE#         8
  C:166EH         LINE#         9
  C:166EH         LINE#         10
  C:1680H         LINE#         11
  C:1693H         LINE#         12
  C:169BH         LINE#         14
  -------         ENDPROC       _ABSFLOAT
  -------         PROC          FDC1004_START
  C:198FH         LINE#         24
  C:198FH         LINE#         25
  C:198FH         LINE#         26
  C:1991H         LINE#         27
  C:1998H         LINE#         28
  C:199AH         LINE#         29
  C:19A1H         LINE#         30
  C:19A3H         LINE#         31
  C:19AAH         LINE#         32
  C:19ACH         LINE#         33
  -------         ENDPROC       FDC1004_START
  -------         PROC          FDC1004_STOP
  C:19ADH         LINE#         40
  C:19ADH         LINE#         41
  C:19ADH         LINE#         42
  C:19AFH         LINE#         43
  C:19B6H         LINE#         44
  C:19B8H         LINE#         45
  C:19BFH         LINE#         46
  C:19C1H         LINE#         47
  C:19C8H         LINE#         48
  C:19CAH         LINE#         49
  -------         ENDPROC       FDC1004_STOP
  -------         PROC          ANSWER
  C:18D6H         LINE#         56
  C:18D6H         LINE#         57
  C:18D6H         LINE#         58
  C:18D8H         LINE#         59
BL51 BANKED LINKER/LOCATER V6.22.2.0                                                  04/07/2022  23:24:27  PAGE 21


  C:18DFH         LINE#         60
  C:18E1H         LINE#         61
  C:18E8H         LINE#         62
  C:18EAH         LINE#         63
  C:18F1H         LINE#         64
  C:18F3H         LINE#         65
  C:18F5H         LINE#         66
  -------         ENDPROC       ANSWER
  -------         PROC          NANSWER
  C:1A72H         LINE#         73
  C:1A72H         LINE#         74
  C:1A72H         LINE#         75
  C:1A74H         LINE#         76
  C:1A76H         LINE#         77
  C:1A7DH         LINE#         78
  C:1A7FH         LINE#         79
  C:1A86H         LINE#         80
  C:1A88H         LINE#         81
  -------         ENDPROC       NANSWER
  -------         PROC          ACK_MASTER
  C:186EH         LINE#         88
  C:186EH         LINE#         89
  C:186EH         LINE#         90
  C:1870H         LINE#         91
  C:1877H         LINE#         92
  C:1879H         LINE#         93
  C:1880H         LINE#         94
  C:1883H         LINE#         95
  C:1883H         LINE#         96
  C:1885H         LINE#         97
  C:1887H         LINE#         98
  C:188AH         LINE#         99
  C:188AH         LINE#         101
  C:188AH         LINE#         102
  C:188CH         LINE#         103
  C:188EH         LINE#         104
  C:1890H         LINE#         105
  C:1890H         LINE#         106
  -------         ENDPROC       ACK_MASTER
  -------         PROC          SACK_MASTER
  C:19CBH         LINE#         107
  C:19CBH         LINE#         108
  C:19CBH         LINE#         109
  C:19CDH         LINE#         110
  C:19D4H         LINE#         111
  C:19D6H         LINE#         112
  C:19DDH         LINE#         113
  C:19DFH         LINE#         114
  C:19E6H         LINE#         115
  C:19E8H         LINE#         116
  -------         ENDPROC       SACK_MASTER
  -------         PROC          NACK_MASTER
  C:1891H         LINE#         123
  C:1891H         LINE#         124
  C:1891H         LINE#         125
  C:1898H         LINE#         126
  C:189AH         LINE#         127
BL51 BANKED LINKER/LOCATER V6.22.2.0                                                  04/07/2022  23:24:27  PAGE 22


  C:18A1H         LINE#         128
  C:18A3H         LINE#         129
  C:18A6H         LINE#         130
  C:18A6H         LINE#         131
  C:18A8H         LINE#         132
  C:18AAH         LINE#         133
  C:18ADH         LINE#         134
  C:18ADH         LINE#         136
  C:18ADH         LINE#         137
  C:18AFH         LINE#         138
  C:18B1H         LINE#         139
  C:18B3H         LINE#         140
  C:18B3H         LINE#         141
  -------         ENDPROC       NACK_MASTER
  -------         PROC          SNACK_MASTER
  C:1A89H         LINE#         142
  C:1A89H         LINE#         143
  C:1A89H         LINE#         144
  C:1A8BH         LINE#         145
  C:1A92H         LINE#         146
  C:1A94H         LINE#         147
  C:1A9BH         LINE#         148
  C:1A9DH         LINE#         149
  -------         ENDPROC       SNACK_MASTER
  -------         PROC          RANSWER
  C:1934H         LINE#         156
  C:1934H         LINE#         157
  C:1934H         LINE#         158
  C:1936H         LINE#         159
  C:193DH         LINE#         160
  C:193FH         LINE#         161
  C:1946H         LINE#         162
  C:1949H         LINE#         163
  C:1949H         LINE#         164
  C:194BH         LINE#         165
  C:194EH         LINE#         166
  C:194EH         LINE#         168
  C:194EH         LINE#         169
  C:1950H         LINE#         170
  C:1952H         LINE#         171
  C:1952H         LINE#         172
  -------         ENDPROC       RANSWER
  -------         PROC          _WRITEDATA
  D:000AH         SYMBOL        Data
  -------         DO            
  D:000BH         SYMBOL        i
  -------         ENDDO         
  C:15A2H         LINE#         179
  C:15A4H         LINE#         180
  C:15A4H         LINE#         182
  C:15B2H         LINE#         183
  C:15B2H         LINE#         184
  C:15B7H         LINE#         185
  C:15BEH         LINE#         186
  C:15C0H         LINE#         187
  C:15C7H         LINE#         188
  C:15C9H         LINE#         189
BL51 BANKED LINKER/LOCATER V6.22.2.0                                                  04/07/2022  23:24:27  PAGE 23


  C:15CFH         LINE#         190
  C:15D3H         LINE#         191
  C:15DAH         LINE#         193
  C:15E2H         LINE#         194
  C:15E2H         LINE#         195
  C:15E5H         LINE#         196
  C:15E5H         LINE#         197
  -------         ENDPROC       _WRITEDATA
  -------         PROC          _WRITE_POINTER
  D:0012H         SYMBOL        Data
  -------         DO            
  D:0013H         SYMBOL        i
  -------         ENDDO         
  C:134AH         LINE#         204
  C:134CH         LINE#         205
  C:134CH         LINE#         207
  C:134EH         LINE#         208
  C:1350H         LINE#         209
  C:1357H         LINE#         210
  C:1365H         LINE#         211
  C:1365H         LINE#         212
  C:136AH         LINE#         213
  C:1371H         LINE#         214
  C:1373H         LINE#         215
  C:137AH         LINE#         216
  C:137CH         LINE#         217
  C:1382H         LINE#         218
  C:1386H         LINE#         219
  C:138DH         LINE#         220
  C:138FH         LINE#         221
  C:1396H         LINE#         222
  C:1398H         LINE#         223
  C:139FH         LINE#         224
  C:13A1H         LINE#         225
  C:13A8H         LINE#         226
  C:13AAH         LINE#         227
  C:13B1H         LINE#         228
  C:13B3H         LINE#         229
  -------         ENDPROC       _WRITE_POINTER
  -------         PROC          _FDC1004_WRITE_ADDR
  D:0012H         SYMBOL        Data
  -------         DO            
  D:0013H         SYMBOL        i
  -------         ENDDO         
  C:146CH         LINE#         230
  C:146EH         LINE#         231
  C:146EH         LINE#         233
  C:1474H         LINE#         234
  C:1476H         LINE#         235
  C:1478H         LINE#         236
  C:147FH         LINE#         237
  C:148DH         LINE#         238
  C:148DH         LINE#         239
  C:1492H         LINE#         240
  C:1499H         LINE#         241
  C:149BH         LINE#         242
  C:14A2H         LINE#         243
BL51 BANKED LINKER/LOCATER V6.22.2.0                                                  04/07/2022  23:24:27  PAGE 24


  C:14A4H         LINE#         244
  C:14AAH         LINE#         245
  C:14AEH         LINE#         246
  C:14B5H         LINE#         247
  C:14BDH         LINE#         248
  C:14BDH         LINE#         249
  C:14C0H         LINE#         250
  C:14C0H         LINE#         251
  -------         ENDPROC       _FDC1004_WRITE_ADDR
  -------         PROC          _FDC1004_READ_ADDR
  D:0012H         SYMBOL        Data
  -------         DO            
  D:0013H         SYMBOL        i
  -------         ENDDO         
  C:1416H         LINE#         252
  C:1418H         LINE#         253
  C:1418H         LINE#         255
  C:141FH         LINE#         256
  C:1421H         LINE#         257
  C:1423H         LINE#         258
  C:142AH         LINE#         259
  C:1438H         LINE#         260
  C:1438H         LINE#         261
  C:143DH         LINE#         262
  C:1444H         LINE#         263
  C:1446H         LINE#         264
  C:144DH         LINE#         265
  C:144FH         LINE#         266
  C:1455H         LINE#         267
  C:1459H         LINE#         268
  C:1460H         LINE#         270
  C:1468H         LINE#         271
  C:1468H         LINE#         272
  C:146BH         LINE#         273
  C:146BH         LINE#         274
  -------         ENDPROC       _FDC1004_READ_ADDR
  -------         PROC          READDATA
  -------         DO            
  D:0012H         SYMBOL        tmp
  D:0013H         SYMBOL        i
  -------         ENDDO         
  C:155DH         LINE#         282
  C:155DH         LINE#         283
  C:155DH         LINE#         286
  C:155FH         LINE#         287
  C:1566H         LINE#         288
  C:1568H         LINE#         289
  C:1576H         LINE#         290
  C:1576H         LINE#         291
  C:1578H         LINE#         292
  C:157FH         LINE#         293
  C:158BH         LINE#         294
  C:158DH         LINE#         295
  C:1594H         LINE#         296
  C:1598H         LINE#         297
  C:159FH         LINE#         298
  C:15A1H         LINE#         299
BL51 BANKED LINKER/LOCATER V6.22.2.0                                                  04/07/2022  23:24:27  PAGE 25


  -------         ENDPROC       READDATA
  -------         PROC          _CONFIG_FDC1004
  D:0057H         SYMBOL        result
  D:0058H         SYMBOL        address
  -------         DO            
  D:0059H         SYMBOL        i
  -------         ENDDO         
  C:1769H         LINE#         301
  C:176DH         LINE#         302
  C:176DH         LINE#         304
  C:1777H         LINE#         305
  C:1777H         LINE#         306
  C:177AH         LINE#         307
  C:177FH         LINE#         308
  C:1784H         LINE#         310
  C:1789H         LINE#         311
  C:178EH         LINE#         312
  C:1791H         LINE#         313
  C:1794H         LINE#         314
  C:1796H         LINE#         315
  C:179AH         LINE#         316
  -------         ENDPROC       _CONFIG_FDC1004
  -------         PROC          _CONFIG_FDC1004_SINGLE
  D:0002H         SYMBOL        Data
  D:0008H         SYMBOL        address
  -------         DO            
  D:0009H         SYMBOL        Data_MSB
  D:0005H         SYMBOL        Data_LSB
  -------         ENDDO         
  C:1822H         LINE#         319
  C:1826H         LINE#         320
  C:1826H         LINE#         321
  C:1829H         LINE#         322
  C:182CH         LINE#         323
  C:182EH         LINE#         324
  C:1831H         LINE#         325
  C:1836H         LINE#         326
  C:183BH         LINE#         328
  C:1840H         LINE#         329
  C:1845H         LINE#         330
  C:1848H         LINE#         331
  -------         ENDPROC       _CONFIG_FDC1004_SINGLE
  -------         PROC          _TRIGGERING_FDC1004
  D:0008H         SYMBOL        address
  C:1A21H         LINE#         334
  C:1A23H         LINE#         335
  C:1A23H         LINE#         336
  C:1A26H         LINE#         337
  C:1A2BH         LINE#         338
  C:1A30H         LINE#         340
  C:1A35H         LINE#         341
  C:1A3AH         LINE#         342
  -------         ENDPROC       _TRIGGERING_FDC1004
  -------         PROC          _WAITFOR_FDC1004
  D:0008H         SYMBOL        address
  -------         DO            
  D:0009H         SYMBOL        rdata
BL51 BANKED LINKER/LOCATER V6.22.2.0                                                  04/07/2022  23:24:27  PAGE 26


  D:000BH         SYMBOL        Data
  -------         ENDDO         
  C:1510H         LINE#         345
  C:1512H         LINE#         346
  C:1512H         LINE#         349
  C:1512H         LINE#         350
  C:1512H         LINE#         351
  C:1515H         LINE#         352
  C:151AH         LINE#         353
  C:151FH         LINE#         354
  C:1522H         LINE#         355
  C:1527H         LINE#         356
  C:152FH         LINE#         357
  C:1532H         LINE#         360
  C:1537H         LINE#         361
  C:153AH         LINE#         362
  C:153DH         LINE#         365
  C:154BH         LINE#         366
  C:1553H         LINE#         367
  C:1553H         LINE#         368
  C:1553H         LINE#         369
  C:1553H         LINE#         370
  C:155AH         LINE#         371
  C:155CH         LINE#         372
  -------         ENDPROC       _WAITFOR_FDC1004
  -------         PROC          _READID_FDC1004
  D:0053H         SYMBOL        address
  -------         DO            
  D:0054H         SYMBOL        rdata
  D:0056H         SYMBOL        Data
  -------         ENDDO         
  C:1627H         LINE#         374
  C:1629H         LINE#         375
  C:1629H         LINE#         378
  C:162CH         LINE#         379
  C:1631H         LINE#         380
  C:1636H         LINE#         381
  C:1639H         LINE#         382
  C:163EH         LINE#         383
  C:1646H         LINE#         384
  C:1649H         LINE#         385
  C:164EH         LINE#         386
  C:1651H         LINE#         387
  C:1654H         LINE#         388
  C:1662H         LINE#         390
  C:1665H         LINE#         391
  -------         ENDPROC       _READID_FDC1004
  -------         PROC          _READDATA_FDC1004
  D:0008H         SYMBOL        address
  -------         DO            
  D:0009H         SYMBOL        rdata1
  D:000BH         SYMBOL        rdata2
  D:000DH         SYMBOL        rdata
  D:0011H         SYMBOL        Data
  -------         ENDDO         
  C:1073H         LINE#         393
  C:1075H         LINE#         394
BL51 BANKED LINKER/LOCATER V6.22.2.0                                                  04/07/2022  23:24:27  PAGE 27


  C:1075H         LINE#         396
  C:107EH         LINE#         398
  C:1081H         LINE#         399
  C:1086H         LINE#         400
  C:108BH         LINE#         401
  C:108EH         LINE#         402
  C:1093H         LINE#         403
  C:109BH         LINE#         404
  C:109EH         LINE#         407
  C:10A3H         LINE#         408
  C:10A6H         LINE#         409
  C:10A9H         LINE#         412
  C:10BEH         LINE#         414
  C:10C4H         LINE#         415
  C:10C7H         LINE#         416
  C:10CCH         LINE#         417
  C:10D3H         LINE#         418
  C:10D8H         LINE#         419
  C:10E0H         LINE#         421
  C:10E3H         LINE#         424
  C:10E8H         LINE#         425
  C:10EBH         LINE#         426
  C:10EEH         LINE#         430
  C:111CH         LINE#         431
  C:1123H         LINE#         432
  -------         ENDPROC       _READDATA_FDC1004
  -------         PROC          _READDATA_AVG
  D:004EH         SYMBOL        result
  D:004FH         SYMBOL        address
  -------         DO            
  D:0050H         SYMBOL        avg
  D:0052H         SYMBOL        i
  -------         ENDDO         
  C:179BH         LINE#         433
  C:179FH         LINE#         434
  C:179FH         LINE#         435
  C:17A4H         LINE#         437
  C:17A6H         LINE#         438
  C:17AFH         LINE#         439
  C:17AFH         LINE#         440
  C:17BEH         LINE#         441
  C:17C2H         LINE#         442
  C:17C6H         LINE#         443
  C:17CAH         LINE#         444
  -------         ENDPROC       _READDATA_AVG
  -------         PROC          _CAP_CAC_DIPLAY
  D:0008H         SYMBOL        lin
  D:0009H         SYMBOL        column
  D:000AH         SYMBOL        Data
  -------         DO            
  D:000EH         SYMBOL        i
  D:000FH         SYMBOL        CapResult
  -------         ENDDO         
  C:0962H         LINE#         446
  C:0966H         LINE#         447
  C:0966H         LINE#         450
  C:0983H         LINE#         452
BL51 BANKED LINKER/LOCATER V6.22.2.0                                                  04/07/2022  23:24:27  PAGE 28


  C:098DH         LINE#         453
  C:0992H         LINE#         454
  C:099FH         LINE#         456
  C:09A0H         LINE#         457
  C:09B8H         LINE#         458
  C:09C9H         LINE#         460
  C:09DCH         LINE#         461
  C:09FEH         LINE#         462
  C:0A0FH         LINE#         463
  C:0A31H         LINE#         464
  C:0A42H         LINE#         465
  C:0A64H         LINE#         466
  C:0A75H         LINE#         467
  C:0A98H         LINE#         468
  C:0AA9H         LINE#         470
  C:0ABCH         LINE#         472
  -------         ENDPROC       _CAP_CAC_DIPLAY
  -------         PROC          _MOISTURE_CAC_DIPLAY
  D:0008H         SYMBOL        lin
  D:0009H         SYMBOL        column
  D:000AH         SYMBOL        Data
  -------         DO            
  D:000EH         SYMBOL        i
  D:000FH         SYMBOL        CapResult
  D:0013H         SYMBOL        MoistureResult
  -------         ENDDO         
  C:0EA0H         LINE#         475
  C:0EA4H         LINE#         476
  C:0EA4H         LINE#         479
  C:0EC1H         LINE#         480
  C:0EE7H         LINE#         481
  C:0EF1H         LINE#         482
  C:0EF6H         LINE#         483
  C:0F03H         LINE#         485
  C:0F04H         LINE#         486
  C:0F1CH         LINE#         487
  C:0F2DH         LINE#         489
  C:0F40H         LINE#         490
  C:0F62H         LINE#         491
  C:0F73H         LINE#         492
  C:0F95H         LINE#         493
  C:0FA6H         LINE#         495
  -------         ENDPROC       _MOISTURE_CAC_DIPLAY
  -------         PROC          _CAP_ACCURACY_DIPLAY
  D:0008H         SYMBOL        lin
  D:0009H         SYMBOL        column
  D:000AH         SYMBOL        Cap_Data
  D:000EH         SYMBOL        Set_Moisture_Data
  -------         DO            
  D:0003H         SYMBOL        i
  D:0012H         SYMBOL        CapResult
  D:0016H         SYMBOL        AccuracyResult
  D:001AH         SYMBOL        Set_Cap_Data
  -------         ENDDO         
  C:0C29H         LINE#         498
  C:0C2DH         LINE#         499
  C:0C2DH         LINE#         501
BL51 BANKED LINKER/LOCATER V6.22.2.0                                                  04/07/2022  23:24:27  PAGE 29


  C:0C46H         LINE#         502
  C:0C62H         LINE#         503
  C:0C88H         LINE#         504
  C:0CB3H         LINE#         506
  C:0CBFH         LINE#         507
  C:0CCCH         LINE#         509
  C:0CDFH         LINE#         510
  C:0CFDH         LINE#         511
  C:0D0EH         LINE#         512
  C:0D2CH         LINE#         513
  C:0D3DH         LINE#         514
  C:0D5BH         LINE#         515
  C:0D6CH         LINE#         517
  -------         ENDPROC       _CAP_ACCURACY_DIPLAY
  -------         PROC          _MOISTURE_ACCURACY_DIPLAY
  D:0008H         SYMBOL        lin
  D:0009H         SYMBOL        column
  D:000AH         SYMBOL        Cap_Data
  D:000EH         SYMBOL        Set_Moisture_Data
  -------         DO            
  D:0003H         SYMBOL        i
  D:0012H         SYMBOL        CapResult
  D:0004H         SYMBOL        MoistureResult
  D:0016H         SYMBOL        AccuracyResult
  -------         ENDDO         
  C:0D7FH         LINE#         520
  C:0D83H         LINE#         521
  C:0D83H         LINE#         524
  C:0DA0H         LINE#         525
  C:0DBEH         LINE#         526
  C:0DF1H         LINE#         528
  C:0DFDH         LINE#         529
  C:0E0AH         LINE#         531
  C:0E1DH         LINE#         532
  C:0E3BH         LINE#         533
  C:0E4CH         LINE#         534
  C:0E6AH         LINE#         535
  C:0E7BH         LINE#         537
  C:0E8EH         LINE#         538
  -------         ENDPROC       _MOISTURE_ACCURACY_DIPLAY
  -------         ENDMOD        FDC1004

  -------         MODULE        ?C?FPADD
  C:000AH         PUBLIC        ?C?FPADD
  C:0006H         PUBLIC        ?C?FPSUB
  -------         ENDMOD        ?C?FPADD

  -------         MODULE        ?C?FPMUL
  C:00FBH         PUBLIC        ?C?FPMUL
  -------         ENDMOD        ?C?FPMUL

  -------         MODULE        ?C?FPDIV
  C:0204H         PUBLIC        ?C?FPDIV
  -------         ENDMOD        ?C?FPDIV

  -------         MODULE        ?C?FPCMP
  C:02A3H         PUBLIC        ?C?FPCMP
BL51 BANKED LINKER/LOCATER V6.22.2.0                                                  04/07/2022  23:24:27  PAGE 30


  C:02A1H         PUBLIC        ?C?FPCMP3
  -------         ENDMOD        ?C?FPCMP

  -------         MODULE        ?C?FPNEG
  C:031AH         PUBLIC        ?C?FPNEG
  -------         ENDMOD        ?C?FPNEG

  -------         MODULE        ?C?FCAST
  C:0335H         PUBLIC        ?C?FCASTC
  C:0330H         PUBLIC        ?C?FCASTI
  C:032BH         PUBLIC        ?C?FCASTL
  -------         ENDMOD        ?C?FCAST

  -------         MODULE        ?C?CASTF
  C:0369H         PUBLIC        ?C?CASTF
  -------         ENDMOD        ?C?CASTF

  -------         MODULE        ?C?CLDOPTR
  C:03EAH         PUBLIC        ?C?CLDOPTR
  -------         ENDMOD        ?C?CLDOPTR

  -------         MODULE        ?C?LMUL
  C:0417H         PUBLIC        ?C?LMUL
  -------         ENDMOD        ?C?LMUL

  -------         MODULE        ?C?ULDIV
  C:04A2H         PUBLIC        ?C?ULDIV
  -------         ENDMOD        ?C?ULDIV

  -------         MODULE        ?C?LNEG
  C:0534H         PUBLIC        ?C?LNEG
  -------         ENDMOD        ?C?LNEG

Program Size: data=100.0 xdata=0 code=6980
LINK/LOCATE RUN COMPLETE.  0 WARNING(S),  0 ERROR(S)
